(iindividual
INDIVIDUAL
p0
(dp1
S'genome'
p2
F-0.38826332011247555
sS'fitness'
p3
cnumpy.core.multiarray
scalar
p4
(cnumpy
dtype
p5
(S'f4'
p6
I0
I1
tp7
Rp8
(I3
S'<'
p9
NNNI-1
I-1
I0
tp10
bS'\x9f9|@'
p11
tp12
Rp13
sb.